target datalayout = "e-m:e-p270:32:32-p271:32:32-p272:64:64-i64:64-i128:128-f80:128-n8:16:32:64-S128"
target triple = "x86_64-unknown-linux-gnu"

%"struct.std::atomic.4" = type { %"struct.std::__atomic_base.5" }
%"struct.std::__atomic_base.5" = type { i8 }
%struct.grpc_slice_buffer = type { ptr, ptr, i64, i64, i64, [7 x %struct.grpc_slice] }
%struct.grpc_slice = type { ptr, %"union.grpc_slice::grpc_slice_data" }
%"union.grpc_slice::grpc_slice_data" = type { %"struct.grpc_slice::grpc_slice_data::grpc_slice_refcounted", [8 x i8] }
%"struct.grpc_slice::grpc_slice_data::grpc_slice_refcounted" = type { i64, ptr }
%"struct.std::atomic" = type { %"struct.std::__atomic_base" }
%"struct.std::__atomic_base" = type { i64 }
%"class.std::__cxx11::basic_string" = type { %"struct.std::__cxx11::basic_string<char>::_Alloc_hider", i64, %union.anon.3 }
%"struct.std::__cxx11::basic_string<char>::_Alloc_hider" = type { ptr }
%union.anon.3 = type { i64, [8 x i8] }
%"class.grpc_core::MemoryOwner" = type { %"class.grpc_event_engine::experimental::MemoryAllocator" }
%"class.grpc_event_engine::experimental::MemoryAllocator" = type { %"class.std::shared_ptr" }
%"class.std::shared_ptr" = type { %"class.std::__shared_ptr" }
%"class.std::__shared_ptr" = type { ptr, %"class.std::__shared_count" }
%"class.std::__shared_count" = type { ptr }
%"class.grpc_event_engine::experimental::MemoryAllocator::Reservation" = type { %"class.std::shared_ptr", i64 }
%"struct.(anonymous namespace)::grpc_tcp" = type <{ %struct.grpc_endpoint, ptr, i32, i32, double, double, %"class.grpc_core::RefCount", i64, i32, i32, %struct.grpc_slice_buffer, %"class.absl::lts_20230802::Mutex", ptr, ptr, i64, ptr, ptr, ptr, ptr, %struct.grpc_closure, %struct.grpc_closure, %struct.grpc_closure, %"class.std::__cxx11::basic_string", %"class.std::__cxx11::basic_string", %"class.grpc_core::MemoryOwner", %"class.grpc_event_engine::experimental::MemoryAllocator::Reservation", %"class.grpc_core::TracedBufferList", ptr, i32, i32, i64, %"class.grpc_core::TcpZerocopySendCtx", ptr, i32, i8, i8, i8, i8, i8, [7 x i8] }>
%struct.grpc_endpoint = type { ptr }
%"class.grpc_core::RefCount" = type { %"struct.std::atomic" }
%"class.absl::lts_20230802::Mutex" = type { %"struct.std::atomic" }
%struct.grpc_closure = type { %union.anon, ptr, ptr, %union.anon.2 }
%union.anon = type { ptr }
%union.anon.2 = type { i64 }
%"class.grpc_core::TracedBufferList" = type { %"class.absl::lts_20230802::Mutex", ptr, ptr }
%"class.grpc_core::TcpZerocopySendCtx" = type <{ ptr, ptr, i32, i32, %"class.absl::lts_20230802::Mutex", i32, %"struct.std::atomic.4", i8, [2 x i8], i64, %"class.std::unordered_map", i8, i8, i8, [5 x i8] }>
%"class.std::unordered_map" = type { %"class.std::_Hashtable" }
%"class.std::_Hashtable" = type { ptr, i64, %"struct.std::__detail::_Hash_node_base", i64, %"struct.std::__detail::_Prime_rehash_policy", ptr }
%"struct.std::__detail::_Hash_node_base" = type { ptr }
%"struct.std::__detail::_Prime_rehash_policy" = type { float, i64 }
%"class.absl::lts_20230802::MutexLock" = type { ptr }

@.str = private unnamed_addr constant [119 x i8] c"generated/home/dtcxzyw/WorkSpace/Projects/compilers/llvm-opt-benchmark/bench/grpc/grpc/src/core/lib/iomgr/tcp_posix.cc\00", align 1
@.str.6 = private unnamed_addr constant [22 x i8] c"ep->vtable == &vtable\00", align 1

; Function Attrs: mustprogress nounwind uwtable
define linkonce_odr noundef i32 @_ZStanSt12memory_orderSt23__memory_order_modifier(i32 noundef %__m, i32 noundef %__mod) #6 comdat {
entry:
  %__m.addr = alloca i32, align 4
  %__mod.addr = alloca i32, align 4
  store i32 %__m, ptr %__m.addr, align 4
  store i32 %__mod, ptr %__mod.addr, align 4
  %0 = load i32, ptr %__m.addr, align 4
  %1 = load i32, ptr %__mod.addr, align 4
  %and = and i32 %0, %1
  ret i32 %and
}

; Function Attrs: mustprogress nounwind uwtable
define linkonce_odr void @_ZN4absl12lts_202308029MutexLockD2Ev(ptr noundef nonnull align 8 dereferenceable(8) %this) unnamed_addr #6 comdat align 2 personality ptr @__gxx_personality_v0 {
entry:
  %this.addr = alloca ptr, align 8
  store ptr %this, ptr %this.addr, align 8
  %this1 = load ptr, ptr %this.addr, align 8
  %mu_ = getelementptr inbounds %"class.absl::lts_20230802::MutexLock", ptr %this1, i32 0, i32 0
  %0 = load ptr, ptr %mu_, align 8
  invoke void @_ZN4absl12lts_202308025Mutex6UnlockEv(ptr noundef nonnull align 8 dereferenceable(8) %0)
          to label %invoke.cont unwind label %terminate.lpad

invoke.cont:                                      ; preds = %entry
  ret void

terminate.lpad:                                   ; preds = %entry
  %1 = landingpad { ptr, i32 }
          catch ptr null
  %2 = extractvalue { ptr, i32 } %1, 0
  call void @__clang_call_terminate(ptr %2) #20
  unreachable
}

; Function Attrs: mustprogress uwtable
define linkonce_odr void @_ZN4absl12lts_202308029MutexLockC2EPNS0_5MutexE(ptr noundef nonnull align 8 dereferenceable(8) %this, ptr noundef %mu) unnamed_addr #4 comdat align 2 {
entry:
  %this.addr = alloca ptr, align 8
  %mu.addr = alloca ptr, align 8
  store ptr %this, ptr %this.addr, align 8
  store ptr %mu, ptr %mu.addr, align 8
  %this1 = load ptr, ptr %this.addr, align 8
  %mu_ = getelementptr inbounds %"class.absl::lts_20230802::MutexLock", ptr %this1, i32 0, i32 0
  %0 = load ptr, ptr %mu.addr, align 8
  store ptr %0, ptr %mu_, align 8
  %mu_2 = getelementptr inbounds %"class.absl::lts_20230802::MutexLock", ptr %this1, i32 0, i32 0
  %1 = load ptr, ptr %mu_2, align 8
  call void @_ZN4absl12lts_202308025Mutex4LockEv(ptr noundef nonnull align 8 dereferenceable(8) %1)
  ret void
}

; Function Attrs: mustprogress nounwind uwtable
define linkonce_odr void @_ZNSt6atomicIbE5storeEbSt12memory_order(ptr noundef nonnull align 1 dereferenceable(1) %this, i1 noundef zeroext %__i, i32 noundef %__m) #6 comdat align 2 {
entry:
  %this.addr.i = alloca ptr, align 8
  %__i.addr.i = alloca i8, align 1
  %__m.addr.i = alloca i32, align 4
  %__b.i = alloca i32, align 4
  %.atomictmp.i = alloca i8, align 1
  %this.addr = alloca ptr, align 8
  %__i.addr = alloca i8, align 1
  %__m.addr = alloca i32, align 4
  store ptr %this, ptr %this.addr, align 8
  %frombool = zext i1 %__i to i8
  store i8 %frombool, ptr %__i.addr, align 1
  store i32 %__m, ptr %__m.addr, align 4
  %this1 = load ptr, ptr %this.addr, align 8
  %_M_base = getelementptr inbounds %"struct.std::atomic.4", ptr %this1, i32 0, i32 0
  %0 = load i8, ptr %__i.addr, align 1
  %tobool = trunc i8 %0 to i1
  %1 = load i32, ptr %__m.addr, align 4
  store ptr %_M_base, ptr %this.addr.i, align 8
  %frombool.i = zext i1 %tobool to i8
  store i8 %frombool.i, ptr %__i.addr.i, align 1
  store i32 %1, ptr %__m.addr.i, align 4
  %this1.i = load ptr, ptr %this.addr.i, align 8
  %2 = load i32, ptr %__m.addr.i, align 4
  %call.i = call noundef i32 @_ZStanSt12memory_orderSt23__memory_order_modifier(i32 noundef %2, i32 noundef 65535)
  store i32 %call.i, ptr %__b.i, align 4
  %3 = load i32, ptr %__m.addr.i, align 4
  %4 = load i8, ptr %__i.addr.i, align 1
  %tobool.i = trunc i8 %4 to i1
  %frombool8.i = zext i1 %tobool.i to i8
  store i8 %frombool8.i, ptr %.atomictmp.i, align 1
  switch i32 %3, label %monotonic.i [
    i32 3, label %release.i
    i32 5, label %seqcst.i
  ]

monotonic.i:                                      ; preds = %entry
  %5 = load i8, ptr %.atomictmp.i, align 1
  store atomic i8 %5, ptr %this1.i monotonic, align 1
  br label %_ZNSt13__atomic_baseIbE5storeEbSt12memory_order.exit

release.i:                                        ; preds = %entry
  %6 = load i8, ptr %.atomictmp.i, align 1
  store atomic i8 %6, ptr %this1.i release, align 1
  br label %_ZNSt13__atomic_baseIbE5storeEbSt12memory_order.exit

seqcst.i:                                         ; preds = %entry
  %7 = load i8, ptr %.atomictmp.i, align 1
  store atomic i8 %7, ptr %this1.i seq_cst, align 1
  br label %_ZNSt13__atomic_baseIbE5storeEbSt12memory_order.exit

_ZNSt13__atomic_baseIbE5storeEbSt12memory_order.exit: ; preds = %seqcst.i, %release.i, %monotonic.i
  ret void
}

; Function Attrs: mustprogress uwtable
define linkonce_odr noundef zeroext i1 @_ZN9grpc_core18TcpZerocopySendCtx19AllSendRecordsEmptyEv(ptr noundef nonnull align 8 dereferenceable(107) %this) #4 comdat align 2 {
entry:
  %this.addr = alloca ptr, align 8
  %guard = alloca %"class.absl::lts_20230802::MutexLock", align 8
  store ptr %this, ptr %this.addr, align 8
  %this1 = load ptr, ptr %this.addr, align 8
  %lock_ = getelementptr inbounds %"class.grpc_core::TcpZerocopySendCtx", ptr %this1, i32 0, i32 4
  call void @_ZN4absl12lts_202308029MutexLockC2EPNS0_5MutexE(ptr noundef nonnull align 8 dereferenceable(8) %guard, ptr noundef %lock_)
  %free_send_records_size_ = getelementptr inbounds %"class.grpc_core::TcpZerocopySendCtx", ptr %this1, i32 0, i32 3
  %0 = load i32, ptr %free_send_records_size_, align 4
  %max_sends_ = getelementptr inbounds %"class.grpc_core::TcpZerocopySendCtx", ptr %this1, i32 0, i32 2
  %1 = load i32, ptr %max_sends_, align 8
  %cmp = icmp eq i32 %0, %1
  call void @_ZN4absl12lts_202308029MutexLockD2Ev(ptr noundef nonnull align 8 dereferenceable(8) %guard) #3
  ret i1 %cmp
}

; Function Attrs: mustprogress nounwind uwtable
define linkonce_odr void @_ZN9grpc_core18TcpZerocopySendCtx8ShutdownEv(ptr noundef nonnull align 8 dereferenceable(107) %this) #6 comdat align 2 {
entry:
  %this.addr = alloca ptr, align 8
  store ptr %this, ptr %this.addr, align 8
  %this1 = load ptr, ptr %this.addr, align 8
  %shutdown_ = getelementptr inbounds %"class.grpc_core::TcpZerocopySendCtx", ptr %this1, i32 0, i32 6
  call void @_ZNSt6atomicIbE5storeEbSt12memory_order(ptr noundef nonnull align 1 dereferenceable(1) %shutdown_, i1 noundef zeroext true, i32 noundef 3) #3
  ret void
}

; Function Attrs: mustprogress uwtable
define internal void @_ZL34ZerocopyDisableAndWaitForRemainingPN12_GLOBAL__N_18grpc_tcpE(ptr noundef %tcp) #4 {
entry:
  %tcp.addr = alloca ptr, align 8
  store ptr %tcp, ptr %tcp.addr, align 8
  %0 = load ptr, ptr %tcp.addr, align 8
  %tcp_zerocopy_send_ctx = getelementptr inbounds %"struct.(anonymous namespace)::grpc_tcp", ptr %0, i32 0, i32 31
  call void @_ZN9grpc_core18TcpZerocopySendCtx8ShutdownEv(ptr noundef nonnull align 8 dereferenceable(107) %tcp_zerocopy_send_ctx)
  br label %while.cond

while.cond:                                       ; preds = %while.body, %entry
  %1 = load ptr, ptr %tcp.addr, align 8
  %tcp_zerocopy_send_ctx1 = getelementptr inbounds %"struct.(anonymous namespace)::grpc_tcp", ptr %1, i32 0, i32 31
  %call = call noundef zeroext i1 @_ZN9grpc_core18TcpZerocopySendCtx19AllSendRecordsEmptyEv(ptr noundef nonnull align 8 dereferenceable(107) %tcp_zerocopy_send_ctx1)
  %lnot = xor i1 %call, true
  br i1 %lnot, label %while.body, label %while.end

while.body:                                       ; preds = %while.cond
  %2 = load ptr, ptr %tcp.addr, align 8
  %call2 = call noundef zeroext i1 @_ZL14process_errorsPN12_GLOBAL__N_18grpc_tcpE(ptr noundef %2)
  br label %while.cond, !llvm.loop !8

while.end:                                        ; preds = %while.cond
  ret void
}

; Function Attrs: mustprogress uwtable
define void @_Z31grpc_tcp_destroy_and_release_fdP13grpc_endpointPiP12grpc_closure(ptr noundef %ep, ptr noundef %fd, ptr noundef %done) #4 {
entry:
  %ep.addr = alloca ptr, align 8
  %fd.addr = alloca ptr, align 8
  %done.addr = alloca ptr, align 8
  %tcp = alloca ptr, align 8
  %.atomictmp = alloca i64, align 8
  store ptr %ep, ptr %ep.addr, align 8
  store ptr %fd, ptr %fd.addr, align 8
  store ptr %done, ptr %done.addr, align 8
  %0 = load ptr, ptr %ep.addr, align 8
  %call = call noundef zeroext i1 @_ZN17grpc_event_engine12experimental29grpc_is_event_engine_endpointEP13grpc_endpoint(ptr noundef %0)
  br i1 %call, label %if.then, label %if.end

if.then:                                          ; preds = %entry
  %1 = load ptr, ptr %ep.addr, align 8
  %2 = load ptr, ptr %fd.addr, align 8
  %3 = load ptr, ptr %done.addr, align 8
  call void @_ZN17grpc_event_engine12experimental49grpc_event_engine_endpoint_destroy_and_release_fdEP13grpc_endpointPiP12grpc_closure(ptr noundef %1, ptr noundef %2, ptr noundef %3)
  br label %return

if.end:                                           ; preds = %entry
  %4 = load ptr, ptr %ep.addr, align 8
  store ptr %4, ptr %tcp, align 8
  br label %do.body

do.body:                                          ; preds = %if.end
  %5 = load ptr, ptr %ep.addr, align 8
  %vtable = getelementptr inbounds %struct.grpc_endpoint, ptr %5, i32 0, i32 0
  %6 = load ptr, ptr %vtable, align 8
  %cmp = icmp eq ptr %6, @_ZL6vtable
  %lnot = xor i1 %cmp, true
  br i1 %lnot, label %if.then1, label %if.end2

if.then1:                                         ; preds = %do.body
  call void @gpr_assertion_failed(ptr noundef @.str, i32 noundef 2047, ptr noundef @.str.6) #18
  unreachable

if.end2:                                          ; preds = %do.body
  br label %do.end

do.end:                                           ; preds = %if.end2
  %7 = load ptr, ptr %fd.addr, align 8
  %8 = load ptr, ptr %tcp, align 8
  %release_fd = getelementptr inbounds %"struct.(anonymous namespace)::grpc_tcp", ptr %8, i32 0, i32 18
  store ptr %7, ptr %release_fd, align 8
  %9 = load ptr, ptr %done.addr, align 8
  %10 = load ptr, ptr %tcp, align 8
  %release_fd_cb = getelementptr inbounds %"struct.(anonymous namespace)::grpc_tcp", ptr %10, i32 0, i32 17
  store ptr %9, ptr %release_fd_cb, align 8
  %11 = load ptr, ptr %tcp, align 8
  %last_read_buffer = getelementptr inbounds %"struct.(anonymous namespace)::grpc_tcp", ptr %11, i32 0, i32 10
  call void @grpc_slice_buffer_reset_and_unref(ptr noundef %last_read_buffer)
  %call3 = call noundef zeroext i1 @_Z34grpc_event_engine_can_track_errorsv()
  br i1 %call3, label %if.then4, label %if.end5

if.then4:                                         ; preds = %do.end
  %12 = load ptr, ptr %tcp, align 8
  call void @_ZL34ZerocopyDisableAndWaitForRemainingPN12_GLOBAL__N_18grpc_tcpE(ptr noundef %12)
  %13 = load ptr, ptr %tcp, align 8
  %stop_error_notification = getelementptr inbounds %"struct.(anonymous namespace)::grpc_tcp", ptr %13, i32 0, i32 30
  store i64 1, ptr %.atomictmp, align 8
  %14 = load i64, ptr %.atomictmp, align 8
  store atomic i64 %14, ptr %stop_error_notification monotonic, align 8
  %15 = load ptr, ptr %tcp, align 8
  %em_fd = getelementptr inbounds %"struct.(anonymous namespace)::grpc_tcp", ptr %15, i32 0, i32 1
  %16 = load ptr, ptr %em_fd, align 8
  call void @_Z17grpc_fd_set_errorP7grpc_fd(ptr noundef %16)
  br label %if.end5

if.end5:                                          ; preds = %if.then4, %do.end
  %17 = load ptr, ptr %tcp, align 8
  %read_mu = getelementptr inbounds %"struct.(anonymous namespace)::grpc_tcp", ptr %17, i32 0, i32 11
  call void @_ZN4absl12lts_202308025Mutex4LockEv(ptr noundef nonnull align 8 dereferenceable(8) %read_mu)
  %18 = load ptr, ptr %tcp, align 8
  %memory_owner = getelementptr inbounds %"struct.(anonymous namespace)::grpc_tcp", ptr %18, i32 0, i32 24
  call void @_ZN17grpc_event_engine12experimental15MemoryAllocator5ResetEv(ptr noundef nonnull align 8 dereferenceable(16) %memory_owner)
  %19 = load ptr, ptr %tcp, align 8
  %read_mu6 = getelementptr inbounds %"struct.(anonymous namespace)::grpc_tcp", ptr %19, i32 0, i32 11
  call void @_ZN4absl12lts_202308025Mutex6UnlockEv(ptr noundef nonnull align 8 dereferenceable(8) %read_mu6)
  %20 = load ptr, ptr %tcp, align 8
  call void @_ZL9tcp_unrefPN12_GLOBAL__N_18grpc_tcpE(ptr noundef %20)
  br label %return

return:                                           ; preds = %if.end5, %if.then
  ret void
}