; Function Attrs: mustprogress uwtable
define void @_Z31grpc_tcp_destroy_and_release_fdP13grpc_endpointPiP12grpc_closure(ptr noundef %ep, ptr noundef %fd, ptr noundef %done) local_unnamed_addr #6 personality ptr @__gxx_personality_v0 {
entry:
  %call = tail call noundef zeroext i1 @_ZN17grpc_event_engine12experimental29grpc_is_event_engine_endpointEP13grpc_endpoint(ptr noundef %ep)
  br i1 %call, label %if.then, label %if.end

if.then:                                          ; preds = %entry
  tail call void @_ZN17grpc_event_engine12experimental49grpc_event_engine_endpoint_destroy_and_release_fdEP13grpc_endpointPiP12grpc_closure(ptr noundef %ep, ptr noundef %fd, ptr noundef %done)
  br label %return

if.end:                                           ; preds = %entry
  %0 = load ptr, ptr %ep, align 8
  %cmp.not = icmp eq ptr %0, @_ZL6vtable
  br i1 %cmp.not, label %do.end, label %if.then1

if.then1:                                         ; preds = %if.end
  tail call void @gpr_assertion_failed(ptr noundef nonnull @.str, i32 noundef 2047, ptr noundef nonnull @.str.6) #26
  unreachable

do.end:                                           ; preds = %if.end
  %release_fd = getelementptr inbounds i8, ptr %ep, i64 384
  store ptr %fd, ptr %release_fd, align 8
  %release_fd_cb = getelementptr inbounds i8, ptr %ep, i64 376
  store ptr %done, ptr %release_fd_cb, align 8
  %last_read_buffer = getelementptr inbounds i8, ptr %ep, i64 64
  tail call void @grpc_slice_buffer_reset_and_unref(ptr noundef nonnull %last_read_buffer)
  %call3 = tail call noundef zeroext i1 @_Z34grpc_event_engine_can_track_errorsv()
  br i1 %call3, label %if.then4, label %if.end5

if.then4:                                         ; preds = %do.end
  %shutdown_.i.i = getelementptr inbounds i8, ptr %ep, i64 676
  store atomic i8 1, ptr %shutdown_.i.i release, align 1
  %lock_.i.i = getelementptr inbounds i8, ptr %ep, i64 664
  %free_send_records_size_.i.i = getelementptr inbounds i8, ptr %ep, i64 660
  %max_sends_.i.i = getelementptr inbounds i8, ptr %ep, i64 656
  br label %while.cond.i

while.cond.i:                                     ; preds = %while.body.i, %if.then4
  tail call void @_ZN4absl12lts_202308025Mutex4LockEv(ptr noundef nonnull align 8 dereferenceable(8) %lock_.i.i)
  %1 = load i32, ptr %free_send_records_size_.i.i, align 4
  %2 = load i32, ptr %max_sends_.i.i, align 8
  invoke void @_ZN4absl12lts_202308025Mutex6UnlockEv(ptr noundef nonnull align 8 dereferenceable(8) %lock_.i.i)
          to label %_ZN9grpc_core18TcpZerocopySendCtx19AllSendRecordsEmptyEv.exit.i unwind label %terminate.lpad.i.i.i

terminate.lpad.i.i.i:                             ; preds = %while.cond.i
  %3 = landingpad { ptr, i32 }
          catch ptr null
  %4 = extractvalue { ptr, i32 } %3, 0
  tail call void @__clang_call_terminate(ptr %4) #27
  unreachable

_ZN9grpc_core18TcpZerocopySendCtx19AllSendRecordsEmptyEv.exit.i: ; preds = %while.cond.i
  %cmp.i.i = icmp eq i32 %1, %2
  br i1 %cmp.i.i, label %_ZL34ZerocopyDisableAndWaitForRemainingPN12_GLOBAL__N_18grpc_tcpE.exit, label %while.body.i

while.body.i:                                     ; preds = %_ZN9grpc_core18TcpZerocopySendCtx19AllSendRecordsEmptyEv.exit.i
  %call2.i = tail call fastcc noundef zeroext i1 @_ZL14process_errorsPN12_GLOBAL__N_18grpc_tcpE(ptr noundef nonnull %ep)
  br label %while.cond.i, !llvm.loop !43

_ZL34ZerocopyDisableAndWaitForRemainingPN12_GLOBAL__N_18grpc_tcpE.exit: ; preds = %_ZN9grpc_core18TcpZerocopySendCtx19AllSendRecordsEmptyEv.exit.i
  %stop_error_notification = getelementptr inbounds i8, ptr %ep, i64 632
  store atomic i64 1, ptr %stop_error_notification monotonic, align 8
  %em_fd = getelementptr inbounds i8, ptr %ep, i64 8
  %5 = load ptr, ptr %em_fd, align 8
  tail call void @_Z17grpc_fd_set_errorP7grpc_fd(ptr noundef %5)
  br label %if.end5

if.end5:                                          ; preds = %_ZL34ZerocopyDisableAndWaitForRemainingPN12_GLOBAL__N_18grpc_tcpE.exit, %do.end
  %read_mu = getelementptr inbounds i8, ptr %ep, i64 328
  tail call void @_ZN4absl12lts_202308025Mutex4LockEv(ptr noundef nonnull align 8 dereferenceable(8) %read_mu)
  %memory_owner = getelementptr inbounds i8, ptr %ep, i64 552
  tail call void @_ZN17grpc_event_engine12experimental15MemoryAllocator5ResetEv(ptr noundef nonnull align 8 dereferenceable(16) %memory_owner)
  tail call void @_ZN4absl12lts_202308025Mutex6UnlockEv(ptr noundef nonnull align 8 dereferenceable(8) %read_mu)
  tail call fastcc void @_ZL9tcp_unrefPN12_GLOBAL__N_18grpc_tcpE(ptr noundef nonnull %ep)
  br label %return

return:                                           ; preds = %if.end5, %if.then
  ret void
}